TN:
SF:/home/runner/work/SandBox/SandBox/App/Include/Application/ExtraDataContainer.h
FN:14,14,_ZN4Data8Internal18ExtraDataContainerC2Ev
FN:15,15,_ZN4Data8Internal18ExtraDataContainerD2Ev
FN:18,18,_ZN4Data8Internal18ExtraDataContainerC2ERKS1_
FN:19,19,_ZN4Data8Internal18ExtraDataContaineraSERKS1_
FN:22,22,_ZN4Data8Internal18ExtraDataContainerC2EOS1_
FN:46,53,_ZNK4Data8Internal18ExtraDataContainer3GetIN3glm3vecILi2EfLNS3_9qualifierE0EEEEEPKT_v
FN:46,53,_ZNK4Data8Internal18ExtraDataContainer3GetIN3glm3vecILi3EfLNS3_9qualifierE0EEEEEPKT_v
FN:57,67,_ZN4Data8Internal18ExtraDataContainer11GetOrCreateIN3glm3vecILi2EfLNS3_9qualifierE0EEEEERT_v
FN:57,67,_ZN4Data8Internal18ExtraDataContainer11GetOrCreateIN3glm3vecILi3EfLNS3_9qualifierE0EEEEERT_v
FN:71,74,_ZNK4Data8Internal18ExtraDataContainer3HasIN3glm3vecILi2EfLNS3_9qualifierE0EEEEEbv
FN:71,74,_ZNK4Data8Internal18ExtraDataContainer3HasIN3glm3vecILi3EfLNS3_9qualifierE0EEEEEbv
FNDA:35,_ZN4Data8Internal18ExtraDataContainerC2Ev
FNDA:0,_ZN4Data8Internal18ExtraDataContainerD2Ev
FNDA:0,_ZN4Data8Internal18ExtraDataContainerC2ERKS1_
FNDA:0,_ZN4Data8Internal18ExtraDataContaineraSERKS1_
FNDA:21,_ZN4Data8Internal18ExtraDataContainerC2EOS1_
FNDA:4,_ZNK4Data8Internal18ExtraDataContainer3GetIN3glm3vecILi2EfLNS3_9qualifierE0EEEEEPKT_v
FNDA:4,_ZNK4Data8Internal18ExtraDataContainer3GetIN3glm3vecILi3EfLNS3_9qualifierE0EEEEEPKT_v
FNDA:0,_ZN4Data8Internal18ExtraDataContainer11GetOrCreateIN3glm3vecILi2EfLNS3_9qualifierE0EEEEERT_v
FNDA:0,_ZN4Data8Internal18ExtraDataContainer11GetOrCreateIN3glm3vecILi3EfLNS3_9qualifierE0EEEEERT_v
FNDA:7,_ZNK4Data8Internal18ExtraDataContainer3HasIN3glm3vecILi2EfLNS3_9qualifierE0EEEEEbv
FNDA:7,_ZNK4Data8Internal18ExtraDataContainer3HasIN3glm3vecILi3EfLNS3_9qualifierE0EEEEEbv
FNF:11
FNH:6
DA:14,35
DA:15,0
DA:18,0
DA:19,0
DA:22,21
DA:46,8
DA:48,8
DA:49,8
DA:50,0
DA:52,8
DA:57,0
DA:59,0
DA:60,0
DA:62,0
DA:63,0
DA:66,0
DA:71,14
DA:73,14
LF:18
LH:8
end_of_record
TN:
SF:/home/runner/work/SandBox/SandBox/App/Include/Application/Mesh.h
FN:39,39,_ZN4Data7Surface4MeshC2Ev
FN:42,42,_ZN4Data7Surface4MeshD2Ev
FNDA:2,_ZN4Data7Surface4MeshC2Ev
FNDA:0,_ZN4Data7Surface4MeshD2Ev
FNF:2
FNH:1
DA:39,2
DA:42,0
LF:2
LH:1
end_of_record
TN:
SF:/home/runner/work/SandBox/SandBox/App/Include/Application/PrimitiveProxy.h
FN:106,110,_ZN4Data9Primitive11VertexProxy20GetOrCreateExtraDataIN3glm3vecILi2EfLNS3_9qualifierE0EEEEERT_v
FN:106,110,_ZN4Data9Primitive11VertexProxy20GetOrCreateExtraDataIN3glm3vecILi3EfLNS3_9qualifierE0EEEEERT_v
FNDA:0,_ZN4Data9Primitive11VertexProxy20GetOrCreateExtraDataIN3glm3vecILi2EfLNS3_9qualifierE0EEEEERT_v
FNDA:0,_ZN4Data9Primitive11VertexProxy20GetOrCreateExtraDataIN3glm3vecILi3EfLNS3_9qualifierE0EEEEERT_v
FNF:2
FNH:0
DA:106,0
DA:108,0
DA:109,0
LF:3
LH:0
end_of_record
TN:
SF:/home/runner/work/SandBox/SandBox/App/Include/Application/VertexPair.h
FN:44,49,_ZNKSt4hashIN4Data9Primitive10VertexPairEEclERKS2_
FNDA:0,_ZNKSt4hashIN4Data9Primitive10VertexPairEEclERKS2_
FNF:1
FNH:0
DA:44,0
DA:46,0
DA:47,0
DA:48,0
LF:4
LH:0
end_of_record
TN:
SF:/home/runner/work/SandBox/SandBox/App/Source/Mesh.cpp
FN:101,147,_ZN4Data7Surface4Mesh22UpdateMeshConnectivityEv
FN:12,19,_ZN4Data7Surface4MeshC2ERKS1_
FN:122,134,_ZZN4Data7Surface4Mesh22UpdateMeshConnectivityEvENKUljjhE_clEjjh
FN:149,152,_ZN4Data7Surface4Mesh11GetVerticesEv
FN:154,157,_ZNK4Data7Surface4Mesh11GetVerticesEv
FN:159,162,_ZN4Data7Surface4Mesh8GetFacesEv
FN:164,167,_ZNK4Data7Surface4Mesh8GetFacesEv
FN:169,172,_ZNK4Data7Surface4Mesh18HasVertexExtraDataEv
FN:174,177,_ZNK4Data7Surface4Mesh16HasFaceExtraDataEv
FN:180,200,_ZN4Data7Surface4Mesh30VerticesAroundVertexCirculatorC2ERKS1_j
FN:202,209,_ZNK4Data7Surface4Mesh30VerticesAroundVertexCirculatoreqERKS2_
FN:211,214,_ZNK4Data7Surface4Mesh30VerticesAroundVertexCirculatorneERKS2_
FN:216,262,_ZN4Data7Surface4Mesh30VerticesAroundVertexCirculatorppEv
FN:22,25,_ZNK4Data7Surface4Mesh5CloneEv
FN:264,269,_ZN4Data7Surface4Mesh30VerticesAroundVertexCirculatorppEi
FN:27,30,_ZNK4Data7Surface4Mesh14GetVertexCountEv
FN:271,274,_ZNK4Data7Surface4Mesh30VerticesAroundVertexCirculatordeEv
FN:276,279,_ZN4Data7Surface4Mesh30VerticesAroundVertexCirculator11SetIsActiveEb
FN:281,290,_ZN4Data7Surface4Mesh30VerticesAroundVertexCirculator29UpdateCurVertexIndexInCWOrderEv
FN:292,301,_ZN4Data7Surface4Mesh30VerticesAroundVertexCirculator30UpdateCurVertexIndexInCCWOrderEv
FN:304,307,_ZN4Data7Surface4Mesh25VerticesAroundVertexRangeC2ERKS1_j
FN:309,314,_ZNK4Data7Surface4Mesh25VerticesAroundVertexRange5beginEv
FN:316,321,_ZNK4Data7Surface4Mesh25VerticesAroundVertexRange3endEv
FN:32,35,_ZNK4Data7Surface4Mesh12GetFaceCountEv
FN:323,326,_ZNK4Data7Surface4Mesh23GetVerticesAroundVertexEj
FN:37,41,_ZN4Data7Surface4Mesh9GetVertexEj
FN:43,47,_ZN4Data7Surface4Mesh7GetFaceEj
FN:49,53,_ZNK4Data7Surface4Mesh13GetVertexDataEj
FN:55,59,_ZN4Data7Surface4Mesh13GetVertexDataEj
FN:61,65,_ZNK4Data7Surface4Mesh11GetFaceDataEj
FN:67,71,_ZN4Data7Surface4Mesh11GetFaceDataEj
FN:73,80,_ZN4Data7Surface4Mesh9AddVertexERKNS_9Primitive6VertexE
FN:82,89,_ZN4Data7Surface4Mesh7AddFaceERKNS_9Primitive4FaceE
FN:91,94,_ZN4Data7Surface4Mesh29AddVerticesExtraDataContainerEv
FN:96,99,_ZN4Data7Surface4Mesh26AddFacesExtraDataContainerEv
FNDA:3,_ZN4Data7Surface4Mesh22UpdateMeshConnectivityEv
FNDA:2,_ZN4Data7Surface4MeshC2ERKS1_
FNDA:54,_ZZN4Data7Surface4Mesh22UpdateMeshConnectivityEvENKUljjhE_clEjjh
FNDA:3,_ZN4Data7Surface4Mesh11GetVerticesEv
FNDA:0,_ZNK4Data7Surface4Mesh11GetVerticesEv
FNDA:3,_ZN4Data7Surface4Mesh8GetFacesEv
FNDA:0,_ZNK4Data7Surface4Mesh8GetFacesEv
FNDA:78,_ZNK4Data7Surface4Mesh18HasVertexExtraDataEv
FNDA:14,_ZNK4Data7Surface4Mesh16HasFaceExtraDataEv
FNDA:6,_ZN4Data7Surface4Mesh30VerticesAroundVertexCirculatorC2ERKS1_j
FNDA:15,_ZNK4Data7Surface4Mesh30VerticesAroundVertexCirculatoreqERKS2_
FNDA:15,_ZNK4Data7Surface4Mesh30VerticesAroundVertexCirculatorneERKS2_
FNDA:12,_ZN4Data7Surface4Mesh30VerticesAroundVertexCirculatorppEv
FNDA:1,_ZNK4Data7Surface4Mesh5CloneEv
FNDA:0,_ZN4Data7Surface4Mesh30VerticesAroundVertexCirculatorppEi
FNDA:160,_ZNK4Data7Surface4Mesh14GetVertexCountEv
FNDA:12,_ZNK4Data7Surface4Mesh30VerticesAroundVertexCirculatordeEv
FNDA:6,_ZN4Data7Surface4Mesh30VerticesAroundVertexCirculator11SetIsActiveEb
FNDA:4,_ZN4Data7Surface4Mesh30VerticesAroundVertexCirculator29UpdateCurVertexIndexInCWOrderEv
FNDA:6,_ZN4Data7Surface4Mesh30VerticesAroundVertexCirculator30UpdateCurVertexIndexInCCWOrderEv
FNDA:3,_ZN4Data7Surface4Mesh25VerticesAroundVertexRangeC2ERKS1_j
FNDA:3,_ZNK4Data7Surface4Mesh25VerticesAroundVertexRange5beginEv
FNDA:3,_ZNK4Data7Surface4Mesh25VerticesAroundVertexRange3endEv
FNDA:172,_ZNK4Data7Surface4Mesh12GetFaceCountEv
FNDA:3,_ZNK4Data7Surface4Mesh23GetVerticesAroundVertexEj
FNDA:37,_ZN4Data7Surface4Mesh9GetVertexEj
FNDA:9,_ZN4Data7Surface4Mesh7GetFaceEj
FNDA:7,_ZNK4Data7Surface4Mesh13GetVertexDataEj
FNDA:10,_ZN4Data7Surface4Mesh13GetVertexDataEj
FNDA:33,_ZNK4Data7Surface4Mesh11GetFaceDataEj
FNDA:10,_ZN4Data7Surface4Mesh11GetFaceDataEj
FNDA:132,_ZN4Data7Surface4Mesh9AddVertexERKNS_9Primitive6VertexE
FNDA:78,_ZN4Data7Surface4Mesh7AddFaceERKNS_9Primitive4FaceE
FNDA:4,_ZN4Data7Surface4Mesh29AddVerticesExtraDataContainerEv
FNDA:4,_ZN4Data7Surface4Mesh26AddFacesExtraDataContainerEv
FNF:35
FNH:32
DA:12,2
DA:14,2
DA:15,2
DA:17,2
DA:18,2
DA:19,2
DA:22,1
DA:24,1
DA:27,160
DA:29,160
DA:32,172
DA:34,172
DA:37,37
DA:39,37
DA:40,37
DA:43,9
DA:45,9
DA:46,9
DA:49,7
DA:51,7
DA:52,7
DA:55,10
DA:57,10
DA:58,10
DA:61,33
DA:63,33
DA:64,33
DA:67,10
DA:69,10
DA:70,10
DA:73,132
DA:75,132
DA:76,132
DA:77,1
DA:78,132
DA:79,132
DA:82,78
DA:84,78
DA:85,78
DA:86,1
DA:87,78
DA:88,78
DA:91,4
DA:93,4
DA:94,4
DA:96,4
DA:98,4
DA:99,4
DA:101,3
DA:103,3
DA:105,21
DA:107,18
DA:110,72
DA:112,54
DA:113,54
DA:115,54
DA:117,54
DA:118,22
DA:122,54
DA:124,54
DA:126,37
DA:130,17
DA:131,17
DA:132,17
DA:134,54
DA:136,18
DA:137,18
DA:138,18
DA:141,18
DA:143,18
DA:145,18
DA:147,3
DA:149,3
DA:151,3
DA:154,0
DA:156,0
DA:159,3
DA:161,3
DA:164,0
DA:166,0
DA:169,78
DA:171,78
DA:174,14
DA:176,14
DA:180,6
DA:181,6
DA:182,6
DA:185,6
DA:186,6
DA:189,6
DA:192,6
DA:194,6
DA:195,6
DA:198,6
DA:199,6
DA:200,6
DA:202,15
DA:205,15
DA:207,15
DA:208,15
DA:211,15
DA:213,15
DA:216,12
DA:218,12
DA:220,12
DA:221,12
DA:222,12
DA:224,8
DA:226,2
DA:228,0
DA:229,0
DA:230,0
DA:231,0
DA:232,0
DA:233,0
DA:237,2
DA:238,2
DA:243,6
DA:244,6
DA:245,6
DA:247,6
DA:252,4
DA:253,4
DA:254,4
DA:255,4
DA:256,2
DA:258,2
DA:261,10
DA:264,0
DA:266,0
DA:267,0
DA:268,0
DA:271,12
DA:273,12
DA:276,6
DA:278,6
DA:279,6
DA:281,4
DA:283,4
DA:284,4
DA:285,4
DA:288,4
DA:289,4
DA:290,4
DA:292,6
DA:294,6
DA:295,6
DA:296,6
DA:299,6
DA:300,6
DA:301,6
DA:304,3
DA:305,3
DA:306,3
DA:307,3
DA:309,3
DA:311,3
DA:312,3
DA:313,3
DA:316,3
DA:318,3
DA:319,3
DA:320,3
DA:323,3
DA:325,3
LF:165
LH:151
end_of_record
TN:
SF:/home/runner/work/SandBox/SandBox/App/Source/MeshExporter.cpp
FN:18,40,_ZN9Utilitary7Surface12MeshExporter9ExportOFFERKN4Data7Surface4MeshERKNSt10filesystem7__cxx114pathE
FN:42,108,_ZN9Utilitary7Surface12MeshExporter9ExportOBJERKN4Data7Surface4MeshERKNSt10filesystem7__cxx114pathE
FNDA:1,_ZN9Utilitary7Surface12MeshExporter9ExportOFFERKN4Data7Surface4MeshERKNSt10filesystem7__cxx114pathE
FNDA:2,_ZN9Utilitary7Surface12MeshExporter9ExportOBJERKN4Data7Surface4MeshERKNSt10filesystem7__cxx114pathE
FNF:2
FNH:2
DA:18,1
DA:20,1
DA:22,1
DA:25,1
DA:28,1
DA:31,5
DA:32,4
DA:35,3
DA:36,4
DA:37,2
DA:39,1
DA:40,1
DA:42,2
DA:44,2
DA:46,2
DA:49,10
DA:50,8
DA:54,2
DA:56,5
DA:58,4
DA:59,4
DA:60,4
DA:66,2
DA:68,5
DA:70,4
DA:71,4
DA:72,4
DA:76,6
DA:78,4
DA:79,16
DA:82,12
DA:85,12
DA:86,12
DA:88,12
DA:90,6
DA:91,6
DA:94,6
DA:96,6
DA:98,6
DA:100,6
DA:104,4
DA:107,2
DA:108,2
LF:43
LH:43
end_of_record
TN:
SF:/home/runner/work/SandBox/SandBox/App/Source/MeshIntegrity.cpp
FN:9,78,_ZN9Utilitary7Surface13MeshIntegrity14CheckIntegrityERKN4Data7Surface4MeshE
FNDA:13,_ZN9Utilitary7Surface13MeshIntegrity14CheckIntegrityERKN4Data7Surface4MeshE
FNF:1
FNH:1
DA:9,13
DA:12,62
DA:14,52
DA:16,52
DA:17,1
DA:20,51
DA:21,1
DA:24,50
DA:25,50
DA:26,50
DA:27,1
DA:31,10
DA:32,10
DA:33,51
DA:35,47
DA:37,47
DA:38,1
DA:41,92
DA:42,92
DA:43,1
DA:45,176
DA:48,135
DA:49,1
DA:52,134
DA:53,134
DA:56,95
DA:57,95
DA:60,95
DA:61,1
DA:64,94
DA:65,1
DA:68,93
DA:69,93
DA:72,93
DA:73,1
DA:77,4
LF:36
LH:36
end_of_record
TN:
SF:/home/runner/work/SandBox/SandBox/App/Source/MeshLoader.cpp
FN:106,118,_ZZN9Utilitary7Surface10MeshLoader7LoadOFFERKNSt10filesystem7__cxx114pathEENKUljjhE_clEjjh
FN:136,256,_ZN9Utilitary7Surface10MeshLoader7LoadOBJERKNSt10filesystem7__cxx114pathE
FN:20,35,_ZN12_GLOBAL__N_125SkipCommentsAndWhitespaceERSt14basic_ifstreamIcSt11char_traitsIcEE
FN:227,239,_ZZN9Utilitary7Surface10MeshLoader7LoadOBJERKNSt10filesystem7__cxx114pathEENKUljjhE_clEjjh
FN:40,134,_ZN9Utilitary7Surface10MeshLoader7LoadOFFERKNSt10filesystem7__cxx114pathE
FNDA:36,_ZZN9Utilitary7Surface10MeshLoader7LoadOFFERKNSt10filesystem7__cxx114pathEENKUljjhE_clEjjh
FNDA:3,_ZN9Utilitary7Surface10MeshLoader7LoadOBJERKNSt10filesystem7__cxx114pathE
FNDA:63,_ZN12_GLOBAL__N_125SkipCommentsAndWhitespaceERSt14basic_ifstreamIcSt11char_traitsIcEE
FNDA:42,_ZZN9Utilitary7Surface10MeshLoader7LoadOBJERKNSt10filesystem7__cxx114pathEENKUljjhE_clEjjh
FNDA:3,_ZN9Utilitary7Surface10MeshLoader7LoadOFFERKNSt10filesystem7__cxx114pathE
FNF:5
FNH:5
DA:20,63
DA:22,136
DA:24,73
DA:27,10
DA:32,63
DA:35,63
DA:40,3
DA:42,3
DA:45,3
DA:47,1
DA:48,1
DA:52,2
DA:53,2
DA:54,2
DA:55,2
DA:57,1
DA:58,1
DA:61,1
DA:64,1
DA:66,1
DA:69,1
DA:70,9
DA:72,8
DA:73,8
DA:77,1
DA:79,1
DA:80,13
DA:82,12
DA:84,12
DA:87,12
DA:89,48
DA:92,36
DA:95,36
DA:98,36
DA:99,8
DA:102,36
DA:106,36
DA:108,36
DA:110,18
DA:114,18
DA:115,18
DA:116,18
DA:118,36
DA:120,12
DA:121,12
DA:122,12
DA:125,12
DA:127,12
DA:129,12
DA:132,1
DA:133,1
DA:134,3
DA:136,3
DA:138,3
DA:141,3
DA:143,1
DA:144,1
DA:148,2
DA:150,1
DA:151,1
DA:154,1
DA:157,1
DA:159,1
DA:160,1
DA:161,1
DA:162,40
DA:164,40
DA:166,40
DA:167,1
DA:169,39
DA:171,39
DA:173,9
DA:174,9
DA:175,9
DA:176,9
DA:178,30
DA:180,8
DA:181,8
DA:182,8
DA:184,22
DA:186,8
DA:187,8
DA:188,8
DA:190,14
DA:192,14
DA:193,14
DA:196,56
DA:200,42
DA:203,42
DA:204,84
DA:206,42
DA:208,42
DA:211,42
DA:213,42
DA:214,42
DA:215,9
DA:217,42
DA:220,210
DA:222,168
DA:227,42
DA:229,42
DA:231,21
DA:235,21
DA:236,21
DA:237,21
DA:239,42
DA:241,14
DA:242,14
DA:243,14
DA:246,14
DA:248,14
DA:250,14
DA:254,1
DA:255,1
DA:256,3
LF:115
LH:115
end_of_record
TN:
SF:/home/runner/work/SandBox/SandBox/App/Source/Primitive.cpp
FN:14,24,_ZZN9Utilitary9Primitive12GetEdgeIndexERKN4Data9Primitive4FaceEjjENKUljhE_clEjh
FN:39,46,_ZN9Utilitary9Primitive19GetVertexLocalIndexERKN4Data9Primitive4FaceEj
FN:8,37,_ZN9Utilitary9Primitive12GetEdgeIndexERKN4Data9Primitive4FaceEjj
FNDA:204,_ZZN9Utilitary9Primitive12GetEdgeIndexERKN4Data9Primitive4FaceEjjENKUljhE_clEjh
FNDA:25,_ZN9Utilitary9Primitive19GetVertexLocalIndexERKN4Data9Primitive4FaceEj
FNDA:106,_ZN9Utilitary9Primitive12GetEdgeIndexERKN4Data9Primitive4FaceEjj
FNF:3
FNH:3
DA:8,106
DA:11,106
DA:14,204
DA:16,204
DA:17,204
DA:18,204
DA:19,99
DA:20,105
DA:21,99
DA:23,6
DA:24,106
DA:27,424
DA:29,318
DA:30,318
DA:31,102
DA:32,216
DA:33,102
DA:36,106
DA:39,25
DA:41,58
DA:42,55
DA:43,22
DA:45,3
LF:23
LH:23
end_of_record
TN:
SF:/home/runner/work/SandBox/SandBox/App/Source/PrimitiveProxy.cpp
FN:10,13,_ZN4Data9Primitive9FaceProxyC2ERNS_7Surface4MeshEj
FN:15,18,_ZNK4Data9Primitive9FaceProxy8GetIndexEv
FN:20,23,_ZN4Data9Primitive9FaceProxy7GetFaceEv
FN:25,28,_ZNK4Data9Primitive9FaceProxy7GetFaceEv
FN:30,34,_ZNK4Data9Primitive9FaceProxy9GetVertexEh
FN:36,39,_ZNK4Data9Primitive9FaceProxy11GetVerticesEv
FN:41,45,_ZNK4Data9Primitive9FaceProxy11GetNeighborEh
FN:47,50,_ZNK4Data9Primitive9FaceProxy12GetNeighborsEv
FN:54,57,_ZN4Data9Primitive11VertexProxyC2ERNS_7Surface4MeshEj
FN:59,62,_ZNK4Data9Primitive11VertexProxy8GetIndexEv
FN:64,67,_ZN4Data9Primitive11VertexProxy9GetVertexEv
FN:69,72,_ZNK4Data9Primitive11VertexProxy9GetVertexEv
FN:74,77,_ZN4Data9Primitive11VertexProxy11GetPositionEv
FN:79,82,_ZNK4Data9Primitive11VertexProxy11GetPositionEv
FN:84,87,_ZNK4Data9Primitive11VertexProxy15GetIncidentFaceEv
FNDA:9,_ZN4Data9Primitive9FaceProxyC2ERNS_7Surface4MeshEj
FNDA:3,_ZNK4Data9Primitive9FaceProxy8GetIndexEv
FNDA:1,_ZN4Data9Primitive9FaceProxy7GetFaceEv
FNDA:12,_ZNK4Data9Primitive9FaceProxy7GetFaceEv
FNDA:6,_ZNK4Data9Primitive9FaceProxy9GetVertexEh
FNDA:2,_ZNK4Data9Primitive9FaceProxy11GetVerticesEv
FNDA:2,_ZNK4Data9Primitive9FaceProxy11GetNeighborEh
FNDA:2,_ZNK4Data9Primitive9FaceProxy12GetNeighborsEv
FNDA:37,_ZN4Data9Primitive11VertexProxyC2ERNS_7Surface4MeshEj
FNDA:3,_ZNK4Data9Primitive11VertexProxy8GetIndexEv
FNDA:4,_ZN4Data9Primitive11VertexProxy9GetVertexEv
FNDA:3,_ZNK4Data9Primitive11VertexProxy9GetVertexEv
FNDA:3,_ZN4Data9Primitive11VertexProxy11GetPositionEv
FNDA:1,_ZNK4Data9Primitive11VertexProxy11GetPositionEv
FNDA:2,_ZNK4Data9Primitive11VertexProxy15GetIncidentFaceEv
FNF:15
FNH:15
DA:10,9
DA:11,9
DA:12,9
DA:13,9
DA:15,3
DA:17,3
DA:20,1
DA:22,1
DA:25,12
DA:27,12
DA:30,6
DA:32,6
DA:33,6
DA:36,2
DA:38,2
DA:41,2
DA:43,2
DA:44,2
DA:47,2
DA:49,2
DA:54,37
DA:55,37
DA:56,37
DA:57,37
DA:59,3
DA:61,3
DA:64,4
DA:66,4
DA:69,3
DA:71,3
DA:74,3
DA:76,3
DA:79,1
DA:81,1
DA:84,2
DA:86,2
LF:36
LH:36
end_of_record
TN:
SF:/home/runner/work/SandBox/SandBox/App/Source/VertexPair.cpp
FN:25,29,_ZNK4Data9Primitive10VertexPaireqERKS1_
FN:31,34,_ZNK4Data9Primitive10VertexPair15GetMinVertexIdxEv
FN:36,39,_ZNK4Data9Primitive10VertexPair15GetMaxVertexIdxEv
FN:7,23,_ZN4Data9Primitive10VertexPairC2Ejj
FNDA:321,_ZNK4Data9Primitive10VertexPaireqERKS1_
FNDA:264,_ZNK4Data9Primitive10VertexPair15GetMinVertexIdxEv
FNDA:264,_ZNK4Data9Primitive10VertexPair15GetMaxVertexIdxEv
FNDA:268,_ZN4Data9Primitive10VertexPairC2Ejj
FNF:4
FNH:4
DA:7,268
DA:9,268
DA:11,136
DA:12,136
DA:14,132
DA:16,131
DA:17,131
DA:21,1
DA:23,267
DA:25,321
DA:27,113
DA:28,434
DA:31,264
DA:33,264
DA:36,264
DA:38,264
LF:16
LH:16
end_of_record
TN:
SF:/home/runner/work/SandBox/SandBox/Core/Include/Core/PrintHelpers.h
FN:112,123,_ZN12PrintHelpers6detail9ErrorImplIJNSt7__cxx1112basic_stringIcSt11char_traitsIcESaIcEEEEEEvRKSt15source_locationSt19basic_format_stringIcJDpNSt13type_identityIT_E4typeEEEDpOSD_
FN:126,141,_ZN12PrintHelpers6detail9DebugImplIJNSt7__cxx1112basic_stringIcSt11char_traitsIcESaIcEEEEEEvRKSt15source_locationSt19basic_format_stringIcJDpNSt13type_identityIT_E4typeEEEDpOSD_
FN:23,51,_ZN12PrintHelpers19ExtractFunctionNameESt17basic_string_viewIcSt11char_traitsIcEE
FNDA:4,_ZN12PrintHelpers6detail9ErrorImplIJNSt7__cxx1112basic_stringIcSt11char_traitsIcESaIcEEEEEEvRKSt15source_locationSt19basic_format_stringIcJDpNSt13type_identityIT_E4typeEEEDpOSD_
FNDA:0,_ZN12PrintHelpers6detail9DebugImplIJNSt7__cxx1112basic_stringIcSt11char_traitsIcESaIcEEEEEEvRKSt15source_locationSt19basic_format_stringIcJDpNSt13type_identityIT_E4typeEEEDpOSD_
FNDA:0,_ZN12PrintHelpers19ExtractFunctionNameESt17basic_string_viewIcSt11char_traitsIcEE
FNF:3
FNH:1
DA:23,0
DA:26,0
DA:27,0
DA:28,0
DA:32,0
DA:33,0
DA:35,0
DA:38,0
DA:41,0
DA:43,0
DA:47,0
DA:50,0
DA:112,4
DA:114,4
DA:115,4
DA:123,4
DA:126,0
DA:131,0
DA:132,0
DA:141,0
LF:20
LH:4
end_of_record
